target datalayout = "e-m:e-p270:32:32-p271:32:32-p272:64:64-i64:64-i128:128-f80:128-n8:16:32:64-S128"
target triple = "x86_64-pc-linux-gnu"

%struct._ir_insn = type { %struct.anon, %union.anon.5 }
%struct.anon = type { %union.anon, %union.anon.4 }
%union.anon = type { i32 }
%union.anon.4 = type { i32 }
%union.anon.5 = type { %union._ir_val }
%union._ir_val = type { double }
%struct._ir_ctx = type { ptr, i32, i32, i32, i32, i32, i32, i32, i32, i32, i32, %struct._ir_insn, ptr, ptr, ptr, i32, i32, i32, ptr, ptr, ptr, ptr, ptr, i32, i32, i64, i32, i32, i32, i64, i32, i32, i32, i32, ptr, ptr, ptr, ptr, ptr, ptr, %union.anon.13, ptr, i32, i32, i32, i64, i32, i32, i32, ptr, ptr, ptr, ptr, %struct._ir_strtab, [61 x i32], [14 x i32] }
%union.anon.13 = type { ptr }
%struct._ir_strtab = type { ptr, i32, i32, i32, i32, ptr, i32, i32 }
%struct._ir_proto_t = type { i8, i8, i8, [5 x i8] }

; Function Attrs: nounwind uwtable
define hidden i32 @ir_strl(ptr noundef %0, ptr noundef %1, i64 noundef %2) #0 {
  %4 = alloca ptr, align 8
  %5 = alloca ptr, align 8
  %6 = alloca i64, align 8
  store ptr %0, ptr %4, align 8
  store ptr %1, ptr %5, align 8
  store i64 %2, ptr %6, align 8
  %7 = load ptr, ptr %4, align 8
  %8 = getelementptr inbounds %struct._ir_ctx, ptr %7, i32 0, i32 53
  %9 = getelementptr inbounds %struct._ir_strtab, ptr %8, i32 0, i32 0
  %10 = load ptr, ptr %9, align 8
  %11 = icmp ne ptr %10, null
  br i1 %11, label %15, label %12

12:                                               ; preds = %3
  %13 = load ptr, ptr %4, align 8
  %14 = getelementptr inbounds %struct._ir_ctx, ptr %13, i32 0, i32 53
  call void @ir_strtab_init(ptr noundef %14, i32 noundef 64, i32 noundef 4096)
  br label %15

15:                                               ; preds = %12, %3
  %16 = load ptr, ptr %4, align 8
  %17 = getelementptr inbounds %struct._ir_ctx, ptr %16, i32 0, i32 53
  %18 = load ptr, ptr %5, align 8
  %19 = load i64, ptr %6, align 8
  %20 = trunc i64 %19 to i32
  %21 = load ptr, ptr %4, align 8
  %22 = getelementptr inbounds %struct._ir_ctx, ptr %21, i32 0, i32 53
  %23 = getelementptr inbounds %struct._ir_strtab, ptr %22, i32 0, i32 3
  %24 = load i32, ptr %23, align 8
  %25 = add i32 %24, 1
  %26 = call i32 @ir_strtab_lookup(ptr noundef %17, ptr noundef %18, i32 noundef %20, i32 noundef %25)
  ret i32 %26
}

; Function Attrs: nounwind uwtable
define hidden i32 @ir_proto_0(ptr noundef %0, i8 noundef zeroext %1, i32 noundef %2) #0 {
  %4 = alloca ptr, align 8
  %5 = alloca i8, align 1
  %6 = alloca i32, align 4
  %7 = alloca %struct._ir_proto_t, align 1
  store ptr %0, ptr %4, align 8
  store i8 %1, ptr %5, align 1
  store i32 %2, ptr %6, align 4
  %8 = load i8, ptr %5, align 1
  %9 = getelementptr inbounds %struct._ir_proto_t, ptr %7, i32 0, i32 0
  store i8 %8, ptr %9, align 1
  %10 = load i32, ptr %6, align 4
  %11 = trunc i32 %10 to i8
  %12 = getelementptr inbounds %struct._ir_proto_t, ptr %7, i32 0, i32 1
  store i8 %11, ptr %12, align 1
  %13 = getelementptr inbounds %struct._ir_proto_t, ptr %7, i32 0, i32 2
  store i8 0, ptr %13, align 1
  %14 = load ptr, ptr %4, align 8
  %15 = call i32 @ir_strl(ptr noundef %14, ptr noundef %7, i64 noundef 3)
  ret i32 %15
}