; Function Attrs: nounwind uwtable
define hidden i32 @ir_proto_0(ptr noundef %0, i8 noundef zeroext %1, i32 noundef %2) local_unnamed_addr #0 {
  %4 = alloca %struct._ir_proto_t, align 1
  store i8 %1, ptr %4, align 1
  %5 = trunc i32 %2 to i8
  %6 = getelementptr inbounds i8, ptr %4, i64 1
  store i8 %5, ptr %6, align 1
  %7 = getelementptr inbounds i8, ptr %4, i64 2
  store i8 0, ptr %7, align 1
  %8 = getelementptr inbounds i8, ptr %0, i64 336
  %9 = load ptr, ptr %8, align 8
  %.not.i = icmp eq ptr %9, null
  br i1 %.not.i, label %10, label %ir_strl.exit

10:                                               ; preds = %3
  tail call void @ir_strtab_init(ptr noundef nonnull %8, i32 noundef 64, i32 noundef 4096) #20
  br label %ir_strl.exit

ir_strl.exit:                                     ; preds = %3, %10
  %11 = getelementptr inbounds i8, ptr %0, i64 352
  %12 = load i32, ptr %11, align 8
  %13 = add i32 %12, 1
  %14 = call i32 @ir_strtab_lookup(ptr noundef nonnull %8, ptr noundef nonnull %4, i32 noundef 3, i32 noundef %13) #20
  ret i32 %14
}